target datalayout = "e-m:e-p270:32:32-p271:32:32-p272:64:64-i64:64-i128:128-f80:128-n8:16:32:64-S128"
target triple = "x86_64-unknown-linux-gnu"

%"class.llvh::raw_ostream" = type <{ ptr, ptr, ptr, ptr, i32, [4 x i8] }>

; Function Attrs: mustprogress nounwind uwtable
define hidden void @_ZN4llvh11raw_ostream16SetBufferAndModeEPcmNS0_10BufferKindE(ptr noundef nonnull align 8 dereferenceable(36) %this, ptr noundef %BufferStart, i64 noundef %Size, i32 noundef %Mode) #0 align 2 {
entry:
  %this.addr = alloca ptr, align 8
  %BufferStart.addr = alloca ptr, align 8
  %Size.addr = alloca i64, align 8
  %Mode.addr = alloca i32, align 4
  store ptr %this, ptr %this.addr, align 8
  store ptr %BufferStart, ptr %BufferStart.addr, align 8
  store i64 %Size, ptr %Size.addr, align 8
  store i32 %Mode, ptr %Mode.addr, align 4
  %this1 = load ptr, ptr %this.addr, align 8
  %BufferMode = getelementptr inbounds %"class.llvh::raw_ostream", ptr %this1, i32 0, i32 4
  %0 = load i32, ptr %BufferMode, align 8
  %cmp = icmp eq i32 %0, 1
  br i1 %cmp, label %if.then, label %if.end

if.then:                                          ; preds = %entry
  %OutBufStart = getelementptr inbounds %"class.llvh::raw_ostream", ptr %this1, i32 0, i32 1
  %1 = load ptr, ptr %OutBufStart, align 8
  %isnull = icmp eq ptr %1, null
  br i1 %isnull, label %delete.end, label %delete.notnull

delete.notnull:                                   ; preds = %if.then
  call void @_ZdaPv(ptr noundef %1) #12
  br label %delete.end

delete.end:                                       ; preds = %delete.notnull, %if.then
  br label %if.end

if.end:                                           ; preds = %delete.end, %entry
  %2 = load ptr, ptr %BufferStart.addr, align 8
  %OutBufStart2 = getelementptr inbounds %"class.llvh::raw_ostream", ptr %this1, i32 0, i32 1
  store ptr %2, ptr %OutBufStart2, align 8
  %OutBufStart3 = getelementptr inbounds %"class.llvh::raw_ostream", ptr %this1, i32 0, i32 1
  %3 = load ptr, ptr %OutBufStart3, align 8
  %4 = load i64, ptr %Size.addr, align 8
  %add.ptr = getelementptr inbounds i8, ptr %3, i64 %4
  %OutBufEnd = getelementptr inbounds %"class.llvh::raw_ostream", ptr %this1, i32 0, i32 2
  store ptr %add.ptr, ptr %OutBufEnd, align 8
  %OutBufStart4 = getelementptr inbounds %"class.llvh::raw_ostream", ptr %this1, i32 0, i32 1
  %5 = load ptr, ptr %OutBufStart4, align 8
  %OutBufCur = getelementptr inbounds %"class.llvh::raw_ostream", ptr %this1, i32 0, i32 3
  store ptr %5, ptr %OutBufCur, align 8
  %6 = load i32, ptr %Mode.addr, align 4
  %BufferMode5 = getelementptr inbounds %"class.llvh::raw_ostream", ptr %this1, i32 0, i32 4
  store i32 %6, ptr %BufferMode5, align 8
  ret void
}