; Function Attrs: mustprogress nounwind uwtable
define hidden void @_ZN4llvh11raw_ostream16SetBufferAndModeEPcmNS0_10BufferKindE(ptr nocapture noundef nonnull align 8 dereferenceable(36) %this, ptr noundef %BufferStart, i64 noundef %Size, i32 noundef %Mode) local_unnamed_addr #0 align 2 {
entry:
  %BufferMode = getelementptr inbounds i8, ptr %this, i64 32
  %0 = load i32, ptr %BufferMode, align 8
  %cmp = icmp eq i32 %0, 1
  br i1 %cmp, label %if.then, label %if.end

if.then:                                          ; preds = %entry
  %OutBufStart = getelementptr inbounds i8, ptr %this, i64 8
  %1 = load ptr, ptr %OutBufStart, align 8
  %isnull = icmp eq ptr %1, null
  br i1 %isnull, label %if.end, label %delete.notnull

delete.notnull:                                   ; preds = %if.then
  tail call void @_ZdaPv(ptr noundef nonnull %1) #24
  br label %if.end

if.end:                                           ; preds = %if.then, %delete.notnull, %entry
  %OutBufStart2 = getelementptr inbounds i8, ptr %this, i64 8
  store ptr %BufferStart, ptr %OutBufStart2, align 8
  %add.ptr = getelementptr inbounds i8, ptr %BufferStart, i64 %Size
  %OutBufEnd = getelementptr inbounds i8, ptr %this, i64 16
  store ptr %add.ptr, ptr %OutBufEnd, align 8
  %OutBufCur = getelementptr inbounds i8, ptr %this, i64 24
  store ptr %BufferStart, ptr %OutBufCur, align 8
  store i32 %Mode, ptr %BufferMode, align 8
  ret void
}